; Function Attrs: nounwind uwtable
define hidden noundef i32 @dom_document_strict_error_checking_read(ptr nocapture noundef readonly %0, ptr nocapture noundef writeonly %1) local_unnamed_addr #0 {
  %3 = getelementptr inbounds i8, ptr %0, i64 8
  %4 = load ptr, ptr %3, align 8
  %5 = tail call ptr @dom_get_doc_props_read_only(ptr noundef %4) #10
  %6 = getelementptr inbounds i8, ptr %5, i64 13
  %7 = load i8, ptr %6, align 1
  %8 = and i8 %7, 1
  %.not = icmp eq i8 %8, 0
  %9 = select i1 %.not, i32 2, i32 3
  %10 = getelementptr inbounds i8, ptr %1, i64 8
  store i32 %9, ptr %10, align 8
  ret i32 0
}